(dp1
S'endSeen'
p2
I01
sS'casefullname'
p3
S'/mnt/c/Oregon_State/Spring_2019/Soft_dev_eng/StoveOpt/StoveOpt/foamfiles/counterFlowFlame2D/case_150/ReactingFoamRunner_reactingFoam_serial_unlimited_runDir'
p4
sS'fatalError'
p5
I00
sS'fatalStackdump'
p6
I00
sS'fatalFPE'
p7
I00
sS'logfile'
p8
S'./ReactingFoamRunner_reactingFoam_serial_unlimited_runDir/PyFoamRunner.blockMesh.logfile'
p9
sS'commandLine'
p10
S'blockMesh -case ./ReactingFoamRunner_reactingFoam_serial_unlimited_runDir'
p11
sS'hostname'
p12
S'DESKTOP-FJSH8MB'
p13
sS'solverFull'
p14
S'blockMesh'
p15
sS'keyboardInterrupt'
p16
I00
sS'cpuUserTime'
p17
F0
sS'cpuSystemTime'
p18
F0
sS'endtime'
p19
S'Mon Jun 24 17:04:25 2019'
p20
sS'remark'
p21
S'No remark given'
p22
sS'OK'
p23
I01
sS'casename'
p24
S'ReactingFoamRunner_reactingFoam_serial_unlimited_runDir'
p25
sS'solver'
p26
g15
sS'lines'
p27
I128
sS'interrupted'
p28
I00
sS'cpuTime'
p29
F0
sS'usedMemory'
p30
F0
sS'starttime'
p31
S'Mon Jun 24 17:04:25 2019'
p32
sS'wallTime'
p33
F0.31286787986755371
s.