(dp1
S'solverFull'
p2
S'/opt/openfoam6/platforms/linux64GccDPInt32Opt/bin/reactingFoam'
p3
sS'warnings'
p4
I627
sS'endSeen'
p5
I00
sS'time'
p6
F0.037622299999999997
sS'lasttimesteptime'
p7
S'Mon Jun 24 17:05:17 2019'
p8
sS'cpuUserTime'
p9
F0
sS'stepNr'
p10
I5502
sS'casefullname'
p11
S'/mnt/c/Oregon_State/Spring_2019/Soft_dev_eng/StoveOpt/StoveOpt/foamfiles/counterFlowFlame2D/case_150/ReactingFoamRunner_reactingFoam_serial_unlimited_runDir'
p12
sS'cpuSystemTime'
p13
F0
sS'cpuTime'
p14
F0
sS'analyzed'
p15
(dp16
S'Continuity'
p17
(dp18
S'Cumulative'
p19
F-0.00017145800000000001
sS'Global'
p20
F2.50932e-10
ssS'DeltaT'
p21
(dp22
S'deltaT'
p23
F6.37465e-06
ssS'Linear'
p24
(dp25
S'p_final'
p26
F4.5344000000000004e-09
sS'CO2'
p27
F1.5317600000000001e-05
sS'CH4_final'
p28
F1.09083e-13
sS'h'
F1.6299699999999999e-05
sS'O2_iterations'
p29
F1
sS'H2O'
p30
F0
sS'p'
F1.2951999999999999e-06
sS'H2O_final'
p31
F0
sS'CH4_iterations'
p32
F1
sS'rho_final'
p33
F0
sS'rho_iterations'
p34
F0
sS'h_iterations'
p35
F1
sS'CH4'
p36
F1.5317600000000001e-05
sS'H2O_iterations'
p37
F0
sS'rho'
p38
F0
sS'p_iterations'
p39
F1
sS'CO2_iterations'
p40
F1
sS'h_final'
p41
F4.9581900000000004e-10
sS'CO2_final'
p42
F1.09083e-13
sS'O2'
p43
F0.0027238499999999999
sS'O2_final'
p44
F2.7304099999999999e-12
ssS'Iterations'
p45
(dp46
S'CO2'
p47
F1
sS'h'
F1
sS'p'
F1
sS'H2O'
p48
F0
sS'CH4'
p49
F1
sS'rho'
p50
F0
sS'O2'
p51
F1
ssS'Execution'
p52
(dp53
S'cpu'
p54
F0
sS'clock'
p55
F0
ssS'Courant'
p56
(dp57
S'max'
p58
F0.399837
sS'mean'
p59
F0.017130200000000002
sssS'endtime'
p60
S'Mon Jun 24 17:05:17 2019'
p61
sS'fatalStackdump'
p62
I00
sS'fatalFPE'
p63
I00
sS'remark'
p64
S'No remark given'
p65
sS'logfile'
p66
S'./ReactingFoamRunner_reactingFoam_serial_unlimited_runDir/PyFoamRunner.reactingFoam.logfile'
p67
sS'OK'
p68
I01
sS'casename'
p69
S'ReactingFoamRunner_reactingFoam_serial_unlimited_runDir'
p70
sS'solver'
p71
S'reactingFoam'
p72
sS'commandLine'
p73
S'/opt/openfoam6/platforms/linux64GccDPInt32Opt/bin/reactingFoam -case ./ReactingFoamRunner_reactingFoam_serial_unlimited_runDir'
p74
sS'hostname'
p75
S'DESKTOP-FJSH8MB'
p76
sS'lines'
p77
I107120
sS'interrupted'
p78
I01
sS'fatalError'
p79
I00
sS'usedMemory'
p80
F0.66796875
sS'warningText'
p81
S'Warning found by PyFoam on line 74 before time started\n\n--> FOAM Warning :\n    From function void Foam::timeControl::read(const Foam::dictionary&)\n    in file db/functionObjects/timeControl/timeControl.C at line 89\n    Reading "./ReactingFoamRunner_reactingFoam_serial_unlimited_runDir/system/controlDict.functions.probes" from line 57 to line 94\n    Using deprecated \'outputControl\'\n    Please use \'writeControl\' with \'writeInterval\'\n\nStarting time loop\n\nCourant Number mean: 0.00598892 max: 0.399371\ndeltaT = 0.000172414\nTime = 0.000172414\n\ndiagonal:  Solving for rho, Initial residual = 0, Final residual = 0, No Iterations 0\nDILUPBiCGStab:  Solving for O2, Initial residual = 1, Final residual = 1.22501e-08, No Iterations 1\nDILUPBiCGStab:  Solving for H2O, Initial residual = 0, Final residual = 0, No Iterations 0\nDILUPBiCGStab:  Solving for CH4, Initial residual = 1, Final residual = 2.25724e-10, No Iterations 1\nDILUPBiCGStab:  Solving for CO2, Initial residual = 1, Final residual = 2.25723e-10, No Iterations 1\nDILUPBiCGStab:  Solving for h, Initial residual = 1, Final residual = 2.53819e-08, No Iterations 1\nmin/max(T) = 249.324, 293.018\nDICPCG:  Solving for p, Initial residual = 1, Final residual = 0.0207061, No Iterations 4\n----------------------------------------\nWarning found by PyFoam on line 112 at time 0.000204425\n\n--> FOAM Warning :\n    From function Foam::scalar Foam::janafThermo<EquationOfState>::limit(Foam::scalar) const [with EquationOfState = Foam::perfectGas<Foam::specie>; Foam::scalar = double]\n    in file /home/ubuntu/OpenFOAM/OpenFOAM-6/src/thermophysicalModels/specie/lnInclude/janafThermoI.H at line 117\n    attempt to use janafThermo<EquationOfState> out of temperature range 200 -> 5000;  T = -202.167\n--> FOAM Warning :\n----------------------------------------\nWarning found by PyFoam on line 116 at time 0.000204425\n\n--> FOAM Warning :\n    From function Foam::scalar Foam::janafThermo<EquationOfState>::limit(Foam::scalar) const [with EquationOfState = Foam::perfectGas<Foam::specie>; Foam::scalar = double]\n    in file /home/ubuntu/OpenFOAM/OpenFOAM-6/src/thermophysicalModels/specie/lnInclude/janafThermoI.H at line 117\n    attempt to use janafThermo<EquationOfState> out of temperature range 200 -> 5000;  T = -204.43\n--> FOAM Warning :\n----------------------------------------\nWarning found by PyFoam on line 120 at time 0.000204425\n\n--> FOAM Warning :\n    From function Foam::scalar Foam::janafThermo<EquationOfState>::limit(Foam::scalar) const [with EquationOfState = Foam::perfectGas<Foam::specie>; Foam::scalar = double]\n    in file /home/ubuntu/OpenFOAM/OpenFOAM-6/src/thermophysicalModels/specie/lnInclude/janafThermoI.H at line 117\n    attempt to use janafThermo<EquationOfState> out of temperature range 200 -> 5000;  T = -236.802\n--> FOAM Warning :\n----------------------------------------\nWarning found by PyFoam on line 124 at time 0.000204425\n\n--> FOAM Warning :\n    From function Foam::scalar Foam::janafThermo<EquationOfState>::limit(Foam::scalar) const [with EquationOfState = Foam::perfectGas<Foam::specie>; Foam::scalar = double]\n    in file /home/ubuntu/OpenFOAM/OpenFOAM-6/src/thermophysicalModels/specie/lnInclude/janafThermoI.H at line 117\n    attempt to use janafThermo<EquationOfState> out of temperature range 200 -> 5000;  T = -239.249\n--> FOAM Warning :\n----------------------------------------\nWarning found by PyFoam on line 128 at time 0.000204425\n\n--> FOAM Warning :\n    From function Foam::scalar Foam::janafThermo<EquationOfState>::limit(Foam::scalar) const [with EquationOfState = Foam::perfectGas<Foam::specie>; Foam::scalar = double]\n    in file /home/ubuntu/OpenFOAM/OpenFOAM-6/src/thermophysicalModels/specie/lnInclude/janafThermoI.H at line 117\n    attempt to use janafThermo<EquationOfState> out of temperature range 200 -> 5000;  T = -202.309\n--> FOAM Warning :\n----------------------------------------\nWarning found by PyFoam on line 132 at time 0.000204425\n\n--> FOAM Warning :\n    From function Foam::scalar Foam::janafThermo<EquationOfState>::limit(Foam::scalar) const [with EquationOfState = Foam::perfectGas<Foam::specie>; Foam::scalar = double]\n    in file /home/ubuntu/OpenFOAM/OpenFOAM-6/src/thermophysicalModels/specie/lnInclude/janafThermoI.H at line 117\n    attempt to use janafThermo<EquationOfState> out of temperature range 200 -> 5000;  T = -204.572\n--> FOAM Warning :\n----------------------------------------\nWarning found by PyFoam on line 136 at time 0.000204425\n\n--> FOAM Warning :\n    From function Foam::scalar Foam::janafThermo<EquationOfState>::limit(Foam::scalar) const [with EquationOfState = Foam::perfectGas<Foam::specie>; Foam::scalar = double]\n    in file /home/ubuntu/OpenFOAM/OpenFOAM-6/src/thermophysicalModels/specie/lnInclude/janafThermoI.H at line 117\n    attempt to use janafThermo<EquationOfState> out of temperature range 200 -> 5000;  T = -236.682\n--> FOAM Warning :\n----------------------------------------\nWarning found by PyFoam on line 140 at time 0.000204425\n\n--> FOAM Warning :\n    From function Foam::scalar Foam::janafThermo<EquationOfState>::limit(Foam::scalar) const [with EquationOfState = Foam::perfectGas<Foam::specie>; Foam::scalar = double]\n    in file /home/ubuntu/OpenFOAM/OpenFOAM-6/src/thermophysicalModels/specie/lnInclude/janafThermoI.H at line 117\n    attempt to use janafThermo<EquationOfState> out of temperature range 200 -> 5000;  T = -239.127\n--> FOAM Warning :\n----------------------------------------\nWarning found by PyFoam on line 144 at time 0.000204425\n\n--> FOAM Warning :\n    From function Foam::scalar Foam::janafThermo<EquationOfState>::limit(Foam::scalar) const [with EquationOfState = Foam::perfectGas<Foam::specie>; Foam::scalar = double]\n    in file /home/ubuntu/OpenFOAM/OpenFOAM-6/src/thermophysicalModels/specie/lnInclude/janafThermoI.H at line 117\n    attempt to use janafThermo<EquationOfState> out of temperature range 200 -> 5000;  T = -198.981\n--> FOAM Warning :\n----------------------------------------\nWarning found by PyFoam on line 148 at time 0.000204425\n\n--> FOAM Warning :\n    From function Foam::scalar Foam::janafThermo<EquationOfState>::limit(Foam::scalar) const [with EquationOfState = Foam::perfectGas<Foam::specie>; Foam::scalar = double]\n    in file /home/ubuntu/OpenFOAM/OpenFOAM-6/src/thermophysicalModels/specie/lnInclude/janafThermoI.H at line 117\n    attempt to use janafThermo<EquationOfState> out of temperature range 200 -> 5000;  T = -201.226\n--> FOAM Warning :\n----------------------------------------\nWarning found by PyFoam on line 152 at time 0.000204425\n\n--> FOAM Warning :\n    From function Foam::scalar Foam::janafThermo<EquationOfState>::limit(Foam::scalar) const [with EquationOfState = Foam::perfectGas<Foam::specie>; Foam::scalar = double]\n    in file /home/ubuntu/OpenFOAM/OpenFOAM-6/src/thermophysicalModels/specie/lnInclude/janafThermoI.H at line 117\n    attempt to use janafThermo<EquationOfState> out of temperature range 200 -> 5000;  T = -199.066\n--> FOAM Warning :\n----------------------------------------\nWarning found by PyFoam on line 156 at time 0.000204425\n\n--> FOAM Warning :\n    From function Foam::scalar Foam::janafThermo<EquationOfState>::limit(Foam::scalar) const [with EquationOfState = Foam::perfectGas<Foam::specie>; Foam::scalar = double]\n    in file /home/ubuntu/OpenFOAM/OpenFOAM-6/src/thermophysicalModels/specie/lnInclude/janafThermoI.H at line 117\n    attempt to use janafThermo<EquationOfState> out of temperature range 200 -> 5000;  T = -201.312\n--> FOAM Warning :\n----------------------------------------\nWarning found by PyFoam on line 160 at time 0.000204425\n\n--> FOAM Warning :\n    From function Foam::scalar Foam::janafThermo<EquationOfState>::limit(Foam::scalar) const [with EquationOfState = Foam::perfectGas<Foam::specie>; Foam::scalar = double]\n    in file /home/ubuntu/OpenFOAM/OpenFOAM-6/src/thermophysicalModels/specie/lnInclude/janafThermoI.H at line 117\n    attempt to use janafThermo<EquationOfState> out of temperature range 200 -> 5000;  T = -199.14\n--> FOAM Warning :\n----------------------------------------\nWarning found by PyFoam on line 164 at time 0.000204425\n\n--> FOAM Warning :\n    From function Foam::scalar Foam::janafThermo<EquationOfState>::limit(Foam::scalar) const [with EquationOfState = Foam::perfectGas<Foam::specie>; Foam::scalar = double]\n    in file /home/ubuntu/OpenFOAM/OpenFOAM-6/src/thermophysicalModels/specie/lnInclude/janafThermoI.H at line 117\n    attempt to use janafThermo<EquationOfState> out of temperature range 200 -> 5000;  T = -201.386\n--> FOAM Warning :\n----------------------------------------\nWarning found by PyFoam on line 168 at time 0.000204425\n\n--> FOAM Warning :\n    From function Foam::scalar Foam::janafThermo<EquationOfState>::limit(Foam::scalar) const [with EquationOfState = Foam::perfectGas<Foam::specie>; Foam::scalar = double]\n    in file /home/ubuntu/OpenFOAM/OpenFOAM-6/src/thermophysicalModels/specie/lnInclude/janafThermoI.H at line 117\n    attempt to use janafThermo<EquationOfState> out of temperature range 200 -> 5000;  T = -198.97\n--> FOAM Warning :\n----------------------------------------\nWarning found by PyFoam on line 172 at time 0.000204425\n\n--> FOAM Warning :\n    From function Foam::scalar Foam::janafThermo<EquationOfState>::limit(Foam::scalar) const [with EquationOfState = Foam::perfectGas<Foam::specie>; Foam::scalar = double]\n    in file /home/ubuntu/OpenFOAM/OpenFOAM-6/src/thermophysicalModels/specie/lnInclude/janafThermoI.H at line 117\n    attempt to use janafThermo<EquationOfState> out of temperature range 200 -> 5000;  T = -201.215\nmin/max(T) = 200, 742.338\nDICPCG:  Solving for p, Initial residual = 0.937599, Final residual = 0.0261271, No Iterations 1\ndiagonal:  Solving for rho, Initial residual = 0, Final residual = 0, No Iterations 0\ntime step continuity errors : sum local = 0.00628987, global = 0.00141595, cumulative = 0.000872755\nDICPCG:  Solving for p, Initial residual = 0.0293288, Final residual = 1.33308e-07, No Iterations 5\ndiagonal:  Solving for rho, Initial residual = 0, Final residual = 0, No Iterations 0\ntime step continuity errors : sum local = 6.48042e-08, global = -2.22617e-08, cumulative = 0.000872733\nExecutionTime = 0.08 s  ClockTime = 0 s\n\nCourant Number mean: 0.108288 max: 0.914074\ndeltaT = 1.39937e-05\nTime = 0.000218419\n\ndiagonal:  Solving for rho, Initial residual = 0, Final residual = 0, No Iterations 0\nDILUPBiCGStab:  Solving for O2, Initial residual = 0.254342, Final residual = 1.27404e-07, No Iterations 2\nDILUPBiCGStab:  Solving for H2O, Initial residual = 0, Final residual = 0, No Iterations 0\nDILUPBiCGStab:  Solving for CH4, Initial residual = 0.0124349, Final residual = 5.77164e-08, No Iterations 1\n----------------------------------------\nWarning found by PyFoam on line 195 at time 0.000218419\n\n--> FOAM Warning :\n    From function Foam::scalar Foam::janafThermo<EquationOfState>::limit(Foam::scalar) const [with EquationOfState = Foam::perfectGas<Foam::specie>; Foam::scalar = double]\n    in file /home/ubuntu/OpenFOAM/OpenFOAM-6/src/thermophysicalModels/specie/lnInclude/janafThermoI.H at line 117\n    attempt to use janafThermo<EquationOfState> out of temperature range 200 -> 5000;  T = -157.97\n--> FOAM Warning :\n----------------------------------------\nWarning found by PyFoam on line 199 at time 0.000218419\n\n--> FOAM Warning :\n    From function Foam::scalar Foam::janafThermo<EquationOfState>::limit(Foam::scalar) const [with EquationOfState = Foam::perfectGas<Foam::specie>; Foam::scalar = double]\n    in file /home/ubuntu/OpenFOAM/OpenFOAM-6/src/thermophysicalModels/specie/lnInclude/janafThermoI.H at line 117\n    attempt to use janafThermo<EquationOfState> out of temperature range 200 -> 5000;  T = -184.555\n--> FOAM Warning :\n----------------------------------------\nWarning found by PyFoam on line 203 at time 0.000218419\n\n--> FOAM Warning :\n    From function Foam::scalar Foam::janafThermo<EquationOfState>::limit(Foam::scalar) const [with EquationOfState = Foam::perfectGas<Foam::specie>; Foam::scalar = double]\n    in file /home/ubuntu/OpenFOAM/OpenFOAM-6/src/thermophysicalModels/specie/lnInclude/janafThermoI.H at line 117\n    attempt to use janafThermo<EquationOfState> out of temperature range 200 -> 5000;  T = -158.037\n--> FOAM Warning :\n----------------------------------------\nWarning found by PyFoam on line 207 at time 0.000218419\n\n--> FOAM Warning :\n    From function Foam::scalar Foam::janafThermo<EquationOfState>::limit(Foam::scalar) const [with EquationOfState = Foam::perfectGas<Foam::specie>; Foam::scalar = double]\n    in file /home/ubuntu/OpenFOAM/OpenFOAM-6/src/thermophysicalModels/specie/lnInclude/janafThermoI.H at line 117\n    attempt to use janafThermo<EquationOfState> out of temperature range 200 -> 5000;  T = -184.391\n--> FOAM Warning :\n----------------------------------------\nWarning found by PyFoam on line 211 at time 0.000218419\n\n--> FOAM Warning :\n    From function Foam::scalar Foam::janafThermo<EquationOfState>::limit(Foam::scalar) const [with EquationOfState = Foam::perfectGas<Foam::specie>; Foam::scalar = double]\n    in file /home/ubuntu/OpenFOAM/OpenFOAM-6/src/thermophysicalModels/specie/lnInclude/janafThermoI.H at line 117\n    attempt to use janafThermo<EquationOfState> out of temperature range 200 -> 5000;  T = -154.612\n--> FOAM Warning :\n----------------------------------------\nWarning found by PyFoam on line 215 at time 0.000218419\n\n--> FOAM Warning :\n    From function Foam::scalar Foam::janafThermo<EquationOfState>::limit(Foam::scalar) const [with EquationOfState = Foam::perfectGas<Foam::specie>; Foam::scalar = double]\n    in file /home/ubuntu/OpenFOAM/OpenFOAM-6/src/thermophysicalModels/specie/lnInclude/janafThermoI.H at line 117\n    attempt to use janafThermo<EquationOfState> out of temperature range 200 -> 5000;  T = -149.77\n--> FOAM Warning :\n----------------------------------------\nWarning found by PyFoam on line 219 at time 0.000218419\n\n--> FOAM Warning :\n    From function Foam::scalar Foam::janafThermo<EquationOfState>::limit(Foam::scalar) const [with EquationOfState = Foam::perfectGas<Foam::specie>; Foam::scalar = double]\n    in file /home/ubuntu/OpenFOAM/OpenFOAM-6/src/thermophysicalModels/specie/lnInclude/janafThermoI.H at line 117\n    attempt to use janafThermo<EquationOfState> out of temperature range 200 -> 5000;  T = -154.718\n--> FOAM Warning :\n----------------------------------------\nWarning found by PyFoam on line 223 at time 0.000218419\n\n--> FOAM Warning :\n    From function Foam::scalar Foam::janafThermo<EquationOfState>::limit(Foam::scalar) const [with EquationOfState = Foam::perfectGas<Foam::specie>; Foam::scalar = double]\n    in file /home/ubuntu/OpenFOAM/OpenFOAM-6/src/thermophysicalModels/specie/lnInclude/janafThermoI.H at line 117\n    attempt to use janafThermo<EquationOfState> out of temperature range 200 -> 5000;  T = -149.626\nmin/max(T) = 200, 745.798\nDICPCG:  Solving for p, Initial residual = 0.209913, Final residual = 0.000586967, No Iterations 1\ndiagonal:  Solving for rho, Initial residual = 0, Final residual = 0, No Iterations 0\ntime step continuity errors : sum local = 0.000295644, global = -6.55059e-06, cumulative = 0.000866182\nDICPCG:  Solving for p, Initial residual = 0.00243861, Final residual = 3.61393e-07, No Iterations 2\ndiagonal:  Solving for rho, Initial residual = 0, Final residual = 0, No Iterations 0\ntime step continuity errors : sum local = 2.17787e-07, global = 1.06746e-07, cumulative = 0.000866289\nExecutionTime = 0.08 s  ClockTime = 0 s\n\nCourant Number mean: 0.046356 max: 0.39971\ndeltaT = 1.39937e-05\nTime = 0.000232413\n\ndiagonal:  Solving for rho, Initial residual = 0, Final residual = 0, No Iterations 0\nDILUPBiCGStab:  Solving for O2, Initial residual = 0.247072, Final residual = 1.08821e-07, No Iterations 2\nDILUPBiCGStab:  Solving for H2O, Initial residual = 0, Final residual = 0, No Iterations 0\nDILUPBiCGStab:  Solving for CH4, Initial residual = 0.0116901, Final residual = 4.09185e-08, No Iterations 1\n----------------------------------------\nWarning found by PyFoam on line 246 at time 0.000232413\n\n--> FOAM Warning :\n    From function Foam::scalar Foam::janafThermo<EquationOfState>::limit(Foam::scalar) const [with EquationOfState = Foam::perfectGas<Foam::specie>; Foam::scalar = double]\n    in file /home/ubuntu/OpenFOAM/OpenFOAM-6/src/thermophysicalModels/specie/lnInclude/janafThermoI.H at line 117\n    attempt to use janafThermo<EquationOfState> out of temperature range 200 -> 5000;  T = -141.45\n--> FOAM Warning :\n----------------------------------------\nWarning found by PyFoam on line 250 at time 0.000232413\n\n--> FOAM Warning :\n    From function Foam::scalar Foam::janafThermo<EquationOfState>::limit(Foam::scalar) const [with EquationOfState = Foam::perfectGas<Foam::specie>; Foam::scalar = double]\n    in file /home/ubuntu/OpenFOAM/OpenFOAM-6/src/thermophysicalModels/specie/lnInclude/janafThermoI.H at line 117\n    attempt to use janafThermo<EquationOfState> out of temperature range 200 -> 5000;  T = -168.823\n--> FOAM Warning :\n----------------------------------------\nWarning found by PyFoam on line 254 at time 0.000232413\n\n--> FOAM Warning :\n    From function Foam::scalar Foam::janafThermo<EquationOfState>::limit(Foam::scalar) const [with EquationOfState = Foam::perfectGas<Foam::specie>; Foam::scalar = double]\n    in file /home/ubuntu/OpenFOAM/OpenFOAM-6/src/thermophysicalModels/specie/lnInclude/janafThermoI.H at line 117\n    attempt to use janafThermo<EquationOfState> out of temperature range 200 -> 5000;  T = -141.252\n--> FOAM Warning :\n----------------------------------------\nWarning found by PyFoam on line 258 at time 0.000232413\n\n--> FOAM Warning :\n    From function Foam::scalar Foam::janafThermo<EquationOfState>::limit(Foam::scalar) const [with EquationOfState = Foam::perfectGas<Foam::specie>; Foam::scalar = double]\n    in file /home/ubuntu/OpenFOAM/OpenFOAM-6/src/thermophysicalModels/specie/lnInclude/janafThermoI.H at line 117\n    attempt to use janafThermo<EquationOfState> out of temperature range 200 -> 5000;  T = -168.38\n--> FOAM Warning :\n----------------------------------------\nWarning found by PyFoam on line 262 at time 0.000232413\n\n--> FOAM Warning :\n    From function Foam::scalar Foam::janafThermo<EquationOfState>::limit(Foam::scalar) const [with EquationOfState = Foam::perfectGas<Foam::specie>; Foam::scalar = double]\n    in file /home/ubuntu/OpenFOAM/OpenFOAM-6/src/thermophysicalModels/specie/lnInclude/janafThermoI.H at line 117\n    attempt to use janafThermo<EquationOfState> out of temperature range 200 -> 5000;  T = -139.473\n--> FOAM Warning :\n----------------------------------------\nWarning found by PyFoam on line 266 at time 0.000232413\n\n--> FOAM Warning :\n    From function Foam::scalar Foam::janafThermo<EquationOfState>::limit(Foam::scalar) const [with EquationOfState = Foam::perfectGas<Foam::specie>; Foam::scalar = double]\n    in file /home/ubuntu/OpenFOAM/OpenFOAM-6/src/thermophysicalModels/specie/lnInclude/janafThermoI.H at line 117\n    attempt to use janafThermo<EquationOfState> out of temperature range 200 -> 5000;  T = -136.387\n--> FOAM Warning :\n----------------------------------------\nWarning found by PyFoam on line 270 at time 0.000232413\n\n--> FOAM Warning :\n    From function Foam::scalar Foam::janafThermo<EquationOfState>::limit(Foam::scalar) const [with EquationOfState = Foam::perfectGas<Foam::specie>; Foam::scalar = double]\n    in file /home/ubuntu/OpenFOAM/OpenFOAM-6/src/thermophysicalModels/specie/lnInclude/janafThermoI.H at line 117\n    attempt to use janafThermo<EquationOfState> out of temperature range 200 -> 5000;  T = -139.309\n--> FOAM Warning :\n----------------------------------------\nWarning found by PyFoam on line 274 at time 0.000232413\n\n--> FOAM Warning :\n    From function Foam::scalar Foam::janafThermo<EquationOfState>::limit(Foam::scalar) const [with EquationOfState = Foam::perfectGas<Foam::specie>; Foam::scalar = double]\n    in file /home/ubuntu/OpenFOAM/OpenFOAM-6/src/thermophysicalModels/specie/lnInclude/janafThermoI.H at line 117\n    attempt to use janafThermo<EquationOfState> out of temperature range 200 -> 5000;  T = -136.094\nmin/max(T) = 200, 672.217\nDICPCG:  Solving for p, Initial residual = 0.133367, Final residual = 0.000391036, No Iterations 1\ndiagonal:  Solving for rho, Initial residual = 0, Final residual = 0, No Iterations 0\ntime step continuity errors : sum local = 0.000273854, global = -6.602e-06, cumulative = 0.000859687\nDICPCG:  Solving for p, Initial residual = 0.00133569, Final residual = 1.90689e-07, No Iterations 2\ndiagonal:  Solving for rho, Initial residual = 0, Final residual = 0, No Iterations 0\ntime step continuity errors : sum local = 1.50058e-07, global = 8.45882e-08, cumulative = 0.000859772\nExecutionTime = 0.09 s  ClockTime = 0 s\n\nCourant Number mean: 0.0398565 max: 0.352186\ndeltaT = 1.55783e-05\nTime = 0.000247991\n\ndiagonal:  Solving for rho, Initial residual = 0, Final residual = 0, No Iterations 0\nDILUPBiCGStab:  Solving for O2, Initial residual = 0.257094, Final residual = 1.42942e-07, No Iterations 2\nDILUPBiCGStab:  Solving for H2O, Initial residual = 0, Final residual = 0, No Iterations 0\nDILUPBiCGStab:  Solving for CH4, Initial residual = 0.0122184, Final residual = 4.86806e-08, No Iterations 1\n----------------------------------------\nWarning found by PyFoam on line 297 at time 0.000247991\n\n--> FOAM Warning :\n    From function Foam::scalar Foam::janafThermo<EquationOfState>::limit(Foam::scalar) const [with EquationOfState = Foam::perfectGas<Foam::specie>; Foam::scalar = double]\n    in file /home/ubuntu/OpenFOAM/OpenFOAM-6/src/thermophysicalModels/specie/lnInclude/janafThermoI.H at line 117\n    attempt to use janafThermo<EquationOfState> out of temperature range 200 -> 5000;  T = -137.72\n--> FOAM Warning :\n----------------------------------------\nWarning found by PyFoam on line 301 at time 0.000247991\n\n--> FOAM Warning :\n    From function Foam::scalar Foam::janafThermo<EquationOfState>::limit(Foam::scalar) const [with EquationOfState = Foam::perfectGas<Foam::specie>; Foam::scalar = double]\n    in file /home/ubuntu/OpenFOAM/OpenFOAM-6/src/thermophysicalModels/specie/lnInclude/janafThermoI.H at line 117\n    attempt to use janafThermo<EquationOfState> out of temperature range 200 -> 5000;  T = -166.685\n--> FOAM Warning :\n----------------------------------------\nWarning found by PyFoam on line 305 at time 0.000247991\n\n--> FOAM Warning :\n    From function Foam::scalar Foam::janafThermo<EquationOfState>::limit(Foam::scalar) const [with EquationOfState = Foam::perfectGas<Foam::specie>; Foam::scalar = double]\n    in file /home/ubuntu/OpenFOAM/OpenFOAM-6/src/thermophysicalModels/specie/lnInclude/janafThermoI.H at line 117\n    attempt to use janafThermo<EquationOfState> out of temperature range 200 -> 5000;  T = -137.197\n--> FOAM Warning :\n----------------------------------------\nWarning found by PyFoam on line 309 at time 0.000247991\n\n--> FOAM Warning :\n    From function Foam::scalar Foam::janafThermo<EquationOfState>::limit(Foam::scalar) const [with EquationOfState = Foam::perfectGas<Foam::specie>; Foam::scalar = double]\n    in file /home/ubuntu/OpenFOAM/OpenFOAM-6/src/thermophysicalModels/specie/lnInclude/janafThermoI.H at line 117\n    attempt to use janafThermo<EquationOfState> out of temperature range 200 -> 5000;  T = -165.9\n--> FOAM Warning :\n----------------------------------------\nWarning found by PyFoam on line 313 at time 0.000247991\n\n--> FOAM Warning :\n    From function Foam::scalar Foam::janafThermo<EquationOfState>::limit(Foam::scalar) const [with EquationOfState = Foam::perfectGas<Foam::specie>; Foam::scalar = double]\n    in file /home/ubuntu/OpenFOAM/OpenFOAM-6/src/thermophysicalModels/specie/lnInclude/janafThermoI.H at line 117\n    attempt to use janafThermo<EquationOfState> out of temperature range 200 -> 5000;  T = -137.447\n--> FOAM Warning :\n----------------------------------------\nWarning found by PyFoam on line 317 at time 0.000247991\n\n--> FOAM Warning :\n    From function Foam::scalar Foam::janafThermo<EquationOfState>::limit(Foam::scalar) const [with EquationOfState = Foam::perfectGas<Foam::specie>; Foam::scalar = double]\n    in file /home/ubuntu/OpenFOAM/OpenFOAM-6/src/thermophysicalModels/specie/lnInclude/janafThermoI.H at line 117\n    attempt to use janafThermo<EquationOfState> out of temperature range 200 -> 5000;  T = -136.648\n--> FOAM Warning :\n----------------------------------------\nWarning found by PyFoam on line 321 at time 0.000247991\n\n--> FOAM Warning :\n    From function Foam::scalar Foam::janafThermo<EquationOfState>::limit(Foam::scalar) const [with EquationOfState = Foam::perfectGas<Foam::specie>; Foam::scalar = double]\n    in file /home/ubuntu/OpenFOAM/OpenFOAM-6/src/thermophysicalModels/specie/lnInclude/janafThermoI.H at line 117\n    attempt to use janafThermo<EquationOfState> out of temperature range 200 -> 5000;  T = -136.937\n--> FOAM Warning :\n----------------------------------------\nWarning found by PyFoam on line 325 at time 0.000247991\n\n--> FOAM Warning :\n    From function Foam::scalar Foam::janafThermo<EquationOfState>::limit(Foam::scalar) const [with EquationOfState = Foam::perfectGas<Foam::specie>; Foam::scalar = double]\n    in file /home/ubuntu/OpenFOAM/OpenFOAM-6/src/thermophysicalModels/specie/lnInclude/janafThermoI.H at line 117\n    attempt to use janafThermo<EquationOfState> out of temperature range 200 -> 5000;  T = -136\nmin/max(T) = 200, 586.534\nDICPCG:  Solving for p, Initial residual = 0.0905132, Final residual = 0.000384282, No Iterations 1\ndiagonal:  Solving for rho, Initial residual = 0, Final residual = 0, No Iterations 0\ntime step continuity errors : sum local = 0.000339292, global = 4.83658e-06, cumulative = 0.000864608\nDICPCG:  Solving for p, Initial residual = 0.00113316, Final residual = 1.75199e-07, No Iterations 2\ndiagonal:  Solving for rho, Initial residual = 0, Final residual = 0, No Iterations 0\ntime step continuity errors : sum local = 1.67485e-07, global = 5.58347e-08, cumulative = 0.000864664\nExecutionTime = 0.11 s  ClockTime = 0 s\n\nCourant Number mean: 0.0350767 max: 0.416804\ndeltaT = 1.49342e-05\nTime = 0.000262925\n\ndiagonal:  Solving for rho, Initial residual = 0, Final residual = 0, No Iterations 0\nDILUPBiCGStab:  Solving for O2, Initial residual = 0.234429, Final residual = 1.3956e-07, No Iterations 2\nDILUPBiCGStab:  Solving for H2O, Initial residual = 0, Final residual = 0, No Iterations 0\nDILUPBiCGStab:  Solving for CH4, Initial residual = 0.0109754, Final residual = 3.09524e-08, No Iterations 1\n----------------------------------------\nWarning found by PyFoam on line 348 at time 0.000262925\n\n--> FOAM Warning :\n    From function Foam::scalar Foam::janafThermo<EquationOfState>::limit(Foam::scalar) const [with EquationOfState = Foam::perfectGas<Foam::specie>; Foam::scalar = double]\n    in file /home/ubuntu/OpenFOAM/OpenFOAM-6/src/thermophysicalModels/specie/lnInclude/janafThermoI.H at line 117\n    attempt to use janafThermo<EquationOfState> out of temperature range 200 -> 5000;  T = -145.323\n--> FOAM Warning :\n----------------------------------------\nWarning found by PyFoam on line 352 at time 0.000262925\n\n--> FOAM Warning :\n    From function Foam::scalar Foam::janafThermo<EquationOfState>::limit(Foam::scalar) const [with EquationOfState = Foam::perfectGas<Foam::specie>; Foam::scalar = double]\n    in file /home/ubuntu/OpenFOAM/OpenFOAM-6/src/thermophysicalModels/specie/lnInclude/janafThermoI.H at line 117\n    attempt to use janafThermo<EquationOfState> out of temperature range 200 -> 5000;  T = -176.487\n--> FOAM Warning :\n----------------------------------------\nWarning found by PyFoam on line 356 at time 0.000262925\n\n--> FOAM Warning :\n    From function Foam::scalar Foam::janafThermo<EquationOfState>::limit(Foam::scalar) const [with EquationOfState = Foam::perfectGas<Foam::specie>; Foam::scalar = double]\n    in file /home/ubuntu/OpenFOAM/OpenFOAM-6/src/thermophysicalModels/specie/lnInclude/janafThermoI.H at line 117\n    attempt to use janafThermo<EquationOfState> out of temperature range 200 -> 5000;  T = -144.436\n--> FOAM Warning :\n----------------------------------------\nWarning found by PyFoam on line 360 at time 0.000262925\n\n--> FOAM Warning :\n    From function Foam::scalar Foam::janafThermo<EquationOfState>::limit(Foam::scalar) const [with EquationOfState = Foam::perfectGas<Foam::specie>; Foam::scalar = double]\n    in file /home/ubuntu/OpenFOAM/OpenFOAM-6/src/thermophysicalModels/specie/lnInclude/janafThermoI.H at line 117\n    attempt to use janafThermo<EquationOfState> out of temperature range 200 -> 5000;  T = -175.327\n--> FOAM Warning :\n----------------------------------------\nWarning found by PyFoam on line 364 at time 0.000262925\n\n--> FOAM Warning :\n    From function Foam::scalar Foam::janafThermo<EquationOfState>::limit(Foam::scalar) const [with EquationOfState = Foam::perfectGas<Foam::specie>; Foam::scalar = double]\n    in file /home/ubuntu/OpenFOAM/OpenFOAM-6/src/thermophysicalModels/specie/lnInclude/janafThermoI.H at line 117\n    attempt to use janafThermo<EquationOfState> out of temperature range 200 -> 5000;  T = -146.738\n--> FOAM Warning :\n----------------------------------------\nWarning found by PyFoam on line 368 at time 0.000262925\n\n--> FOAM Warning :\n    From function Foam::scalar Foam::janafThermo<EquationOfState>::limit(Foam::scalar) const [with EquationOfState = Foam::perfectGas<Foam::specie>; Foam::scalar = double]\n    in file /home/ubuntu/OpenFOAM/OpenFOAM-6/src/thermophysicalModels/specie/lnInclude/janafThermoI.H at line 117\n    attempt to use janafThermo<EquationOfState> out of temperature range 200 -> 5000;  T = -148.238\n--> FOAM Warning :\n----------------------------------------\nWarning found by PyFoam on line 372 at time 0.000262925\n\n--> FOAM Warning :\n    From function Foam::scalar Foam::janafThermo<EquationOfState>::limit(Foam::scalar) const [with EquationOfState = Foam::perfectGas<Foam::specie>; Foam::scalar = double]\n    in file /home/ubuntu/OpenFOAM/OpenFOAM-6/src/thermophysicalModels/specie/lnInclude/janafThermoI.H at line 117\n    attempt to use janafThermo<EquationOfState> out of temperature range 200 -> 5000;  T = -145.829\n--> FOAM Warning :\n----------------------------------------\nWarning found by PyFoam on line 376 at time 0.000262925\n\n--> FOAM Warning :\n    From function Foam::scalar Foam::janafThermo<EquationOfState>::limit(Foam::scalar) const [with EquationOfState = Foam::perfectGas<Foam::specie>; Foam::scalar = double]\n    in file /home/ubuntu/OpenFOAM/OpenFOAM-6/src/thermophysicalModels/specie/lnInclude/janafThermoI.H at line 117\n    attempt to use janafThermo<EquationOfState> out of temperature range 200 -> 5000;  T = -147.193\nmin/max(T) = 200, 511.705\nDICPCG:  Solving for p, Initial residual = 0.0525615, Final residual = 0.000182933, No Iterations 1\ndiagonal:  Solving for rho, Initial residual = 0, Final residual = 0, No Iterations 0\ntime step continuity errors : sum local = 0.000185651, global = 2.68224e-06, cumulative = 0.000867346\nDICPCG:  Solving for p, Initial residual = 0.000958091, Final residual = 8.57695e-08, No Iterations 2\ndiagonal:  Solving for rho, Initial residual = 0, Final residual = 0, No Iterations 0\ntime step continuity errors : sum local = 9.10063e-08, global = 3.80055e-08, cumulative = 0.000867384\nExecutionTime = 0.11 s  ClockTime = 0 s\n\nCourant Number mean: 0.0261311 max: 0.464163\ndeltaT = 1.28627e-05\nTime = 0.000275788\n\ndiagonal:  Solving for rho, Initial residual = 0, Final residual = 0, No Iterations 0\nDILUPBiCGStab:  Solving for O2, Initial residual = 0.193131, Final residual = 4.05515e-08, No Iterations 2\nDILUPBiCGStab:  Solving for H2O, Initial residual = 0, Final residual = 0, No Iterations 0\nDILUPBiCGStab:  Solving for CH4, Initial residual = 0.00892497, Final residual = 1.34235e-08, No Iterations 1\n----------------------------------------\nWarning found by PyFoam on line 399 at time 0.000275788\n\n--> FOAM Warning :\n    From function Foam::scalar Foam::janafThermo<EquationOfState>::limit(Foam::scalar) const [with EquationOfState = Foam::perfectGas<Foam::specie>; Foam::scalar = double]\n    in file /home/ubuntu/OpenFOAM/OpenFOAM-6/src/thermophysicalModels/specie/lnInclude/janafThermoI.H at line 117\n    attempt to use janafThermo<EquationOfState> out of temperature range 200 -> 5000;  T = -155.356\n--> FOAM Warning :\n----------------------------------------\nWarning found by PyFoam on line 403 at time 0.000275788\n\n--> FOAM Warning :\n    From function Foam::scalar Foam::janafThermo<EquationOfState>::limit(Foam::scalar) const [with EquationOfState = Foam::perfectGas<Foam::specie>; Foam::scalar = double]\n    in file /home/ubuntu/OpenFOAM/OpenFOAM-6/src/thermophysicalModels/specie/lnInclude/janafThermoI.H at line 117\n    attempt to use janafThermo<EquationOfState> out of temperature range 200 -> 5000;  T = -189.105\n--> FOAM Warning :\n----------------------------------------\nWarning found by PyFoam on line 407 at time 0.000275788\n\n--> FOAM Warning :\n    From function Foam::scalar Foam::janafThermo<EquationOfState>::limit(Foam::scalar) const [with EquationOfState = Foam::perfectGas<Foam::specie>; Foam::scalar = double]\n    in file /home/ubuntu/OpenFOAM/OpenFOAM-6/src/thermophysicalModels/specie/lnInclude/janafThermoI.H at line 117\n    attempt to use janafThermo<EquationOfState> out of temperature range 200 -> 5000;  T = -154.098\n--> FOAM Warning :\n----------------------------------------\nWarning found by PyFoam on line 411 at time 0.000275788\n\n--> FOAM Warning :\n    From function Foam::scalar Foam::janafThermo<EquationOfState>::limit(Foam::scalar) const [with EquationOfState = Foam::perfectGas<Foam::specie>; Foam::scalar = double]\n    in file /home/ubuntu/OpenFOAM/OpenFOAM-6/src/thermophysicalModels/specie/lnInclude/janafThermoI.H at line 117\n    attempt to use janafThermo<EquationOfState> out of temperature range 200 -> 5000;  T = -187.576\n--> FOAM Warning :\n----------------------------------------\nWarning found by PyFoam on line 415 at time 0.000275788\n\n--> FOAM Warning :\n    From function Foam::scalar Foam::janafThermo<EquationOfState>::limit(Foam::scalar) const [with EquationOfState = Foam::perfectGas<Foam::specie>; Foam::scalar = double]\n    in file /home/ubuntu/OpenFOAM/OpenFOAM-6/src/thermophysicalModels/specie/lnInclude/janafThermoI.H at line 117\n    attempt to use janafThermo<EquationOfState> out of temperature range 200 -> 5000;  T = 78.1194\n--> FOAM Warning :\n----------------------------------------\nWarning found by PyFoam on line 419 at time 0.000275788\n\n--> FOAM Warning :\n    From function Foam::scalar Foam::janafThermo<EquationOfState>::limit(Foam::scalar) const [with EquationOfState = Foam::perfectGas<Foam::specie>; Foam::scalar = double]\n    in file /home/ubuntu/OpenFOAM/OpenFOAM-6/src/thermophysicalModels/specie/lnInclude/janafThermoI.H at line 117\n    attempt to use janafThermo<EquationOfState> out of temperature range 200 -> 5000;  T = 78.0556\n--> FOAM Warning :\n----------------------------------------\nWarning found by PyFoam on line 423 at time 0.000275788\n\n--> FOAM Warning :\n    From function Foam::scalar Foam::janafThermo<EquationOfState>::limit(Foam::scalar) const [with EquationOfState = Foam::perfectGas<Foam::specie>; Foam::scalar = double]\n    in file /home/ubuntu/OpenFOAM/OpenFOAM-6/src/thermophysicalModels/specie/lnInclude/janafThermoI.H at line 117\n    attempt to use janafThermo<EquationOfState> out of temperature range 200 -> 5000;  T = 122.894\n--> FOAM Warning :\n----------------------------------------\nWarning found by PyFoam on line 427 at time 0.000275788\n\n--> FOAM Warning :\n    From function Foam::scalar Foam::janafThermo<EquationOfState>::limit(Foam::scalar) const [with EquationOfState = Foam::perfectGas<Foam::specie>; Foam::scalar = double]\n    in file /home/ubuntu/OpenFOAM/OpenFOAM-6/src/thermophysicalModels/specie/lnInclude/janafThermoI.H at line 117\n    attempt to use janafThermo<EquationOfState> out of temperature range 200 -> 5000;  T = 122.152\n--> FOAM Warning :\n----------------------------------------\nWarning found by PyFoam on line 431 at time 0.000275788\n\n--> FOAM Warning :\n    From function Foam::scalar Foam::janafThermo<EquationOfState>::limit(Foam::scalar) const [with EquationOfState = Foam::perfectGas<Foam::specie>; Foam::scalar = double]\n    in file /home/ubuntu/OpenFOAM/OpenFOAM-6/src/thermophysicalModels/specie/lnInclude/janafThermoI.H at line 117\n    attempt to use janafThermo<EquationOfState> out of temperature range 200 -> 5000;  T = 75.8288\n--> FOAM Warning :\n----------------------------------------\nWarning found by PyFoam on line 435 at time 0.000275788\n\n--> FOAM Warning :\n    From function Foam::scalar Foam::janafThermo<EquationOfState>::limit(Foam::scalar) const [with EquationOfState = Foam::perfectGas<Foam::specie>; Foam::scalar = double]\n    in file /home/ubuntu/OpenFOAM/OpenFOAM-6/src/thermophysicalModels/specie/lnInclude/janafThermoI.H at line 117\n    attempt to use janafThermo<EquationOfState> out of temperature range 200 -> 5000;  T = 75.799\n--> FOAM Warning :\n----------------------------------------\nWarning found by PyFoam on line 439 at time 0.000275788\n\n--> FOAM Warning :\n    From function Foam::scalar Foam::janafThermo<EquationOfState>::limit(Foam::scalar) const [with EquationOfState = Foam::perfectGas<Foam::specie>; Foam::scalar = double]\n    in file /home/ubuntu/OpenFOAM/OpenFOAM-6/src/thermophysicalModels/specie/lnInclude/janafThermoI.H at line 117\n    attempt to use janafThermo<EquationOfState> out of temperature range 200 -> 5000;  T = 120.305\n--> FOAM Warning :\n----------------------------------------\nWarning found by PyFoam on line 443 at time 0.000275788\n\n--> FOAM Warning :\n    From function Foam::scalar Foam::janafThermo<EquationOfState>::limit(Foam::scalar) const [with EquationOfState = Foam::perfectGas<Foam::specie>; Foam::scalar = double]\n    in file /home/ubuntu/OpenFOAM/OpenFOAM-6/src/thermophysicalModels/specie/lnInclude/janafThermoI.H at line 117\n    attempt to use janafThermo<EquationOfState> out of temperature range 200 -> 5000;  T = 119.575\n--> FOAM Warning :\n----------------------------------------\nWarning found by PyFoam on line 447 at time 0.000275788\n\n--> FOAM Warning :\n    From function Foam::scalar Foam::janafThermo<EquationOfState>::limit(Foam::scalar) const [with EquationOfState = Foam::perfectGas<Foam::specie>; Foam::scalar = double]\n    in file /home/ubuntu/OpenFOAM/OpenFOAM-6/src/thermophysicalModels/specie/lnInclude/janafThermoI.H at line 117\n    attempt to use janafThermo<EquationOfState> out of temperature range 200 -> 5000;  T = -157.884\n--> FOAM Warning :\n----------------------------------------\nWarning found by PyFoam on line 451 at time 0.000275788\n\n--> FOAM Warning :\n    From function Foam::scalar Foam::janafThermo<EquationOfState>::limit(Foam::scalar) const [with EquationOfState = Foam::perfectGas<Foam::specie>; Foam::scalar = double]\n    in file /home/ubuntu/OpenFOAM/OpenFOAM-6/src/thermophysicalModels/specie/lnInclude/janafThermoI.H at line 117\n    attempt to use janafThermo<EquationOfState> out of temperature range 200 -> 5000;  T = -162.124\n--> FOAM Warning :\n----------------------------------------\nWarning found by PyFoam on line 455 at time 0.000275788\n\n--> FOAM Warning :\n    From function Foam::scalar Foam::janafThermo<EquationOfState>::limit(Foam::scalar) const [with EquationOfState = Foam::perfectGas<Foam::specie>; Foam::scalar = double]\n    in file /home/ubuntu/OpenFOAM/OpenFOAM-6/src/thermophysicalModels/specie/lnInclude/janafThermoI.H at line 117\n    attempt to use janafThermo<EquationOfState> out of temperature range 200 -> 5000;  T = -156.547\n--> FOAM Warning :\n----------------------------------------\nWarning found by PyFoam on line 459 at time 0.000275788\n\n--> FOAM Warning :\n    From function Foam::scalar Foam::janafThermo<EquationOfState>::limit(Foam::scalar) const [with EquationOfState = Foam::perfectGas<Foam::specie>; Foam::scalar = double]\n    in file /home/ubuntu/OpenFOAM/OpenFOAM-6/src/thermophysicalModels/specie/lnInclude/janafThermoI.H at line 117\n    attempt to use janafThermo<EquationOfState> out of temperature range 200 -> 5000;  T = -160.667\nmin/max(T) = 200, 435.866\nDICPCG:  Solving for p, Initial residual = 0.0273187, Final residual = 5.31311e-05, No Iterations 1\ndiagonal:  Solving for rho, Initial residual = 0, Final residual = 0, No Iterations 0\ntime step continuity errors : sum local = 5.75895e-05, global = 3.56666e-06, cumulative = 0.000870951\nDICPCG:  Solving for p, Initial residual = 0.000431554, Final residual = 1.74525e-08, No Iterations 2\ndiagonal:  Solving for rho, Initial residual = 0, Final residual = 0, No Iterations 0\ntime step continuity errors : sum local = 1.93626e-08, global = 9.03957e-09, cumulative = 0.00087096\nExecutionTime = 0.12 s  ClockTime = 0 s\n\nCourant Number mean: 0.017101 max: 0.355243\ndeltaT = 1.43003e-05\nTime = 0.000290088\n\ndiagonal:  Solving for rho, Initial residual = 0, Final residual = 0, No Iterations 0\nDILUPBiCGStab:  Solving for O2, Initial residual = 0.20318, Final residual = 3.14788e-08, No Iterations 2\nDILUPBiCGStab:  Solving for H2O, Initial residual = 0, Final residual = 0, No Iterations 0\nDILUPBiCGStab:  Solving for CH4, Initial residual = 0.00945316, Final residual = 1.21535e-08, No Iterations 1\n----------------------------------------\nWarning found by PyFoam on line 482 at time 0.000290088\n\n--> FOAM Warning :\n    From function Foam::scalar Foam::janafThermo<EquationOfState>::limit(Foam::scalar) const [with EquationOfState = Foam::perfectGas<Foam::specie>; Foam::scalar = double]\n    in file /home/ubuntu/OpenFOAM/OpenFOAM-6/src/thermophysicalModels/specie/lnInclude/janafThermoI.H at line 117\n    attempt to use janafThermo<EquationOfState> out of temperature range 200 -> 5000;  T = -154.84\n--> FOAM Warning :\n----------------------------------------\nWarning found by PyFoam on line 486 at time 0.000290088\n\n--> FOAM Warning :\n    From function Foam::scalar Foam::janafThermo<EquationOfState>::limit(Foam::scalar) const [with EquationOfState = Foam::perfectGas<Foam::specie>; Foam::scalar = double]\n    in file /home/ubuntu/OpenFOAM/OpenFOAM-6/src/thermophysicalModels/specie/lnInclude/janafThermoI.H at line 117\n    attempt to use janafThermo<EquationOfState> out of temperature range 200 -> 5000;  T = -195.859\n--> FOAM Warning :\n----------------------------------------\nWarning found by PyFoam on line 490 at time 0.000290088\n\n--> FOAM Warning :\n    From function Foam::scalar Foam::janafThermo<EquationOfState>::limit(Foam::scalar) const [with EquationOfState = Foam::perfectGas<Foam::specie>; Foam::scalar = double]\n    in file /home/ubuntu/OpenFOAM/OpenFOAM-6/src/thermophysicalModels/specie/lnInclude/janafThermoI.H at line 117\n    attempt to use janafThermo<EquationOfState> out of temperature range 200 -> 5000;  T = -152.886\n--> FOAM Warning :\n----------------------------------------\nWarning found by PyFoam on line 494 at time 0.000290088\n\n--> FOAM Warning :\n    From function Foam::scalar Foam::janafThermo<EquationOfState>::limit(Foam::scalar) const [with EquationOfState = Foam::perfectGas<Foam::specie>; Foam::scalar = double]\n    in file /home/ubuntu/OpenFOAM/OpenFOAM-6/src/thermophysicalModels/specie/lnInclude/janafThermoI.H at line 117\n    attempt to use janafThermo<EquationOfState> out of temperature range 200 -> 5000;  T = -193.743\n--> FOAM Warning :\n----------------------------------------\nWarning found by PyFoam on line 498 at time 0.000290088\n\n--> FOAM Warning :\n    From function Foam::scalar Foam::janafThermo<EquationOfState>::limit(Foam::scalar) const [with EquationOfState = Foam::perfectGas<Foam::specie>; Foam::scalar = double]\n    in file /home/ubuntu/OpenFOAM/OpenFOAM-6/src/thermophysicalModels/specie/lnInclude/janafThermoI.H at line 117\n    attempt to use janafThermo<EquationOfState> out of temperature range 200 -> 5000;  T = 22.2219\n--> FOAM Warning :\n----------------------------------------\nWarning found by PyFoam on line 502 at time 0.000290088\n\n--> FOAM Warning :\n    From function Foam::scalar Foam::janafThermo<EquationOfState>::limit(Foam::scalar) const [with EquationOfState = Foam::perfectGas<Foam::specie>; Foam::scalar = double]\n    in file /home/ubuntu/OpenFOAM/OpenFOAM-6/src/thermophysicalModels/specie/lnInclude/janafThermoI.H at line 117\n    attempt to use janafThermo<EquationOfState> out of temperature range 200 -> 5000;  T = 12.695\n--> FOAM Warning :\n----------------------------------------\nWarning found by PyFoam on line 506 at time 0.000290088\n\n--> FOAM Warning :\n    From function Foam::scalar Foam::janafThermo<EquationOfState>::limit(Foam::scalar) const [with EquationOfState = Foam::perfectGas<Foam::specie>; Foam::scalar = double]\n    in file /home/ubuntu/OpenFOAM/OpenFOAM-6/src/thermophysicalModels/specie/lnInclude/janafThermoI.H at line 117\n    attempt to use janafThermo<EquationOfState> out of temperature range 200 -> 5000;  T = 21.9041\n--> FOAM Warning :\n----------------------------------------\nWarning found by PyFoam on line 510 at time 0.000290088\n\n--> FOAM Warning :\n    From function Foam::scalar Foam::janafThermo<EquationOfState>::limit(Foam::scalar) const [with EquationOfState = Foam::perfectGas<Foam::specie>; Foam::scalar = double]\n    in file /home/ubuntu/OpenFOAM/OpenFOAM-6/src/thermophysicalModels/specie/lnInclude/janafThermoI.H at line 117\n    attempt to use janafThermo<EquationOfState> out of temperature range 200 -> 5000;  T = 12.2916\n--> FOAM Warning :\n----------------------------------------\nWarning found by PyFoam on line 514 at time 0.000290088\n\n--> FOAM Warning :\n    From function Foam::scalar Foam::janafThermo<EquationOfState>::limit(Foam::scalar) const [with EquationOfState = Foam::perfectGas<Foam::specie>; Foam::scalar = double]\n    in file /home/ubuntu/OpenFOAM/OpenFOAM-6/src/thermophysicalModels/specie/lnInclude/janafThermoI.H at line 117\n    attempt to use janafThermo<EquationOfState> out of temperature range 200 -> 5000;  T = -158.021\n--> FOAM Warning :\n----------------------------------------\nWarning found by PyFoam on line 518 at time 0.000290088\n\n--> FOAM Warning :\n    From function Foam::scalar Foam::janafThermo<EquationOfState>::limit(Foam::scalar) const [with EquationOfState = Foam::perfectGas<Foam::specie>; Foam::scalar = double]\n    in file /home/ubuntu/OpenFOAM/OpenFOAM-6/src/thermophysicalModels/specie/lnInclude/janafThermoI.H at line 117\n    attempt to use janafThermo<EquationOfState> out of temperature range 200 -> 5000;  T = -170.268\n--> FOAM Warning :\n----------------------------------------\nWarning found by PyFoam on line 522 at time 0.000290088\n\n--> FOAM Warning :\n    From function Foam::scalar Foam::janafThermo<EquationOfState>::limit(Foam::scalar) const [with EquationOfState = Foam::perfectGas<Foam::specie>; Foam::scalar = double]\n    in file /home/ubuntu/OpenFOAM/OpenFOAM-6/src/thermophysicalModels/specie/lnInclude/janafThermoI.H at line 117\n    attempt to use janafThermo<EquationOfState> out of temperature range 200 -> 5000;  T = -155.89\n--> FOAM Warning :\n----------------------------------------\nWarning found by PyFoam on line 526 at time 0.000290088\n\n--> FOAM Warning :\n    From function Foam::scalar Foam::janafThermo<EquationOfState>::limit(Foam::scalar) const [with EquationOfState = Foam::perfectGas<Foam::specie>; Foam::scalar = double]\n    in file /home/ubuntu/OpenFOAM/OpenFOAM-6/src/thermophysicalModels/specie/lnInclude/janafThermoI.H at line 117\n    attempt to use janafThermo<EquationOfState> out of temperature range 200 -> 5000;  T = -168.125\nmin/max(T) = 200, 377.379\nDICPCG:  Solving for p, Initial residual = 0.0118029, Final residual = 3.293e-05, No Iterations 1\ndiagonal:  Solving for rho, Initial residual = 0, Final residual = 0, No Iterations 0\ntime step continuity errors : sum local = 3.74255e-05, global = -6.59737e-06, cumulative = 0.000864363\nDICPCG:  Solving for p, Initial residual = 0.000200592, Final residual = 1.9825e-08, No Iterations 2\ndiagonal:  Solving for rho, Initial residual = 0, Final residual = 0, No Iterations 0\ntime step continuity errors : sum local = 2.27142e-08, global = 1.09603e-08, cumulative = 0.000864374\nExecutionTime = 0.12 s  ClockTime = 0 s\n\nCourant Number mean: 0.0108669 max: 0.310368\ndeltaT = 1.61294e-05\nTime = 0.000306218\n\ndiagonal:  Solving for rho, Initial residual = 0, Final residual = 0, No Iterations 0\nDILUPBiCGStab:  Solving for O2, Initial residual = 0.21775, Final residual = 2.65466e-08, No Iterations 2\nDILUPBiCGStab:  Solving for H2O, Initial residual = 0, Final residual = 0, No Iterations 0\nDILUPBiCGStab:  Solving for CH4, Initial residual = 0.0101325, Final residual = 3.61891e-09, No Iterations 1\n----------------------------------------\nWarning found by PyFoam on line 549 at time 0.000306218\n\n--> FOAM Warning :\n    From function Foam::scalar Foam::janafThermo<EquationOfState>::limit(Foam::scalar) const [with EquationOfState = Foam::perfectGas<Foam::specie>; Foam::scalar = double]\n    in file /home/ubuntu/OpenFOAM/OpenFOAM-6/src/thermophysicalModels/specie/lnInclude/janafThermoI.H at line 117\n    attempt to use janafThermo<EquationOfState> out of temperature range 200 -> 5000;  T = -136.737\n--> FOAM Warning :\n----------------------------------------\nWarning found by PyFoam on line 553 at time 0.000306218\n\n--> FOAM Warning :\n    From function Foam::scalar Foam::janafThermo<EquationOfState>::limit(Foam::scalar) const [with EquationOfState = Foam::perfectGas<Foam::specie>; Foam::scalar = double]\n    in file /home/ubuntu/OpenFOAM/OpenFOAM-6/src/thermophysicalModels/specie/lnInclude/janafThermoI.H at line 117\n    attempt to use janafThermo<EquationOfState> out of temperature range 200 -> 5000;  T = 191.827\n--> FOAM Warning :\n----------------------------------------\nWarning found by PyFoam on line 557 at time 0.000306218\n\n--> FOAM Warning :\n    From function Foam::scalar Foam::janafThermo<EquationOfState>::limit(Foam::scalar) const [with EquationOfState = Foam::perfectGas<Foam::specie>; Foam::scalar = double]\n    in file /home/ubuntu/OpenFOAM/OpenFOAM-6/src/thermophysicalModels/specie/lnInclude/janafThermoI.H at line 117\n    attempt to use janafThermo<EquationOfState> out of temperature range 200 -> 5000;  T = 191.801\n--> FOAM Warning :\n----------------------------------------\nWarning found by PyFoam on line 561 at time 0.000306218\n\n--> FOAM Warning :\n    From function Foam::scalar Foam::janafThermo<EquationOfState>::limit(Foam::scalar) const [with EquationOfState = Foam::perfectGas<Foam::specie>; Foam::scalar = double]\n    in file /home/ubuntu/OpenFOAM/OpenFOAM-6/src/thermophysicalModels/specie/lnInclude/janafThermoI.H at line 117\n    attempt to use janafThermo<EquationOfState> out of temperature range 200 -> 5000;  T = -178.784\n--> FOAM Warning :\n----------------------------------------\nWarning found by PyFoam on line 565 at time 0.000306218\n\n--> FOAM Warning :\n    From function Foam::scalar Foam::janafThermo<EquationOfState>::limit(Foam::scalar) const [with EquationOfState = Foam::perfectGas<Foam::specie>; Foam::scalar = double]\n    in file /home/ubuntu/OpenFOAM/OpenFOAM-6/src/thermophysicalModels/specie/lnInclude/janafThermoI.H at line 117\n    attempt to use janafThermo<EquationOfState> out of temperature range 200 -> 5000;  T = -134.319\n--> FOAM Warning :\n----------------------------------------\nWarning found by PyFoam on line 569 at time 0.000306218\n\n--> FOAM Warning :\n    From function Foam::scalar Foam::janafThermo<EquationOfState>::limit(Foam::scalar) const [with EquationOfState = Foam::perfectGas<Foam::specie>; Foam::scalar = double]\n    in file /home/ubuntu/OpenFOAM/OpenFOAM-6/src/thermophysicalModels/specie/lnInclude/janafThermoI.H at line 117\n    attempt to use janafThermo<EquationOfState> out of temperature range 200 -> 5000;  T = 191.562\n--> FOAM Warning :\n----------------------------------------\nWarning found by PyFoam on line 573 at time 0.000306218\n\n--> FOAM Warning :\n    From function Foam::scalar Foam::janafThermo<EquationOfState>::limit(Foam::scalar) const [with EquationOfState = Foam::perfectGas<Foam::specie>; Foam::scalar = double]\n    in file /home/ubuntu/OpenFOAM/OpenFOAM-6/src/thermophysicalModels/specie/lnInclude/janafThermoI.H at line 117\n    attempt to use janafThermo<EquationOfState> out of temperature range 200 -> 5000;  T = 191.538\n--> FOAM Warning :\n----------------------------------------\nWarning found by PyFoam on line 577 at time 0.000306218\n\n--> FOAM Warning :\n    From function Foam::scalar Foam::janafThermo<EquationOfState>::limit(Foam::scalar) const [with EquationOfState = Foam::perfectGas<Foam::specie>; Foam::scalar = double]\n    in file /home/ubuntu/OpenFOAM/OpenFOAM-6/src/thermophysicalModels/specie/lnInclude/janafThermoI.H at line 117\n    attempt to use janafThermo<EquationOfState> out of temperature range 200 -> 5000;  T = -176.295\n--> FOAM Warning :\n----------------------------------------\nWarning found by PyFoam on line 581 at time 0.000306218\n\n--> FOAM Warning :\n    From function Foam::scalar Foam::janafThermo<EquationOfState>::limit(Foam::scalar) const [with EquationOfState = Foam::perfectGas<Foam::specie>; Foam::scalar = double]\n    in file /home/ubuntu/OpenFOAM/OpenFOAM-6/src/thermophysicalModels/specie/lnInclude/janafThermoI.H at line 117\n    attempt to use janafThermo<EquationOfState> out of temperature range 200 -> 5000;  T = -7.04323\n--> FOAM Warning :\n----------------------------------------\nWarning found by PyFoam on line 585 at time 0.000306218\n\n--> FOAM Warning :\n    From function Foam::scalar Foam::janafThermo<EquationOfState>::limit(Foam::scalar) const [with EquationOfState = Foam::perfectGas<Foam::specie>; Foam::scalar = double]\n    in file /home/ubuntu/OpenFOAM/OpenFOAM-6/src/thermophysicalModels/specie/lnInclude/janafThermoI.H at line 117\n    attempt to use janafThermo<EquationOfState> out of temperature range 200 -> 5000;  T = -30.4545\n--> FOAM Warning :\n----------------------------------------\nWarning found by PyFoam on line 589 at time 0.000306218\n\n--> FOAM Warning :\n    From function Foam::scalar Foam::janafThermo<EquationOfState>::limit(Foam::scalar) const [with EquationOfState = Foam::perfectGas<Foam::specie>; Foam::scalar = double]\n    in file /home/ubuntu/OpenFOAM/OpenFOAM-6/src/thermophysicalModels/specie/lnInclude/janafThermoI.H at line 117\n    attempt to use janafThermo<EquationOfState> out of temperature range 200 -> 5000;  T = -6.76976\n--> FOAM Warning :\n----------------------------------------\nWarning found by PyFoam on line 593 at time 0.000306218\n\n--> FOAM Warning :\n    From function Foam::scalar Foam::janafThermo<EquationOfState>::limit(Foam::scalar) const [with EquationOfState = Foam::perfectGas<Foam::specie>; Foam::scalar = double]\n    in file /home/ubuntu/OpenFOAM/OpenFOAM-6/src/thermophysicalModels/specie/lnInclude/janafThermoI.H at line 117\n    attempt to use janafThermo<EquationOfState> out of temperature range 200 -> 5000;  T = -30.2039\n--> FOAM Warning :\n----------------------------------------\nWarning found by PyFoam on line 597 at time 0.000306218\n\n--> FOAM Warning :\n    From function Foam::scalar Foam::janafThermo<EquationOfState>::limit(Foam::scalar) const [with EquationOfState = Foam::perfectGas<Foam::specie>; Foam::scalar = double]\n    in file /home/ubuntu/OpenFOAM/OpenFOAM-6/src/thermophysicalModels/specie/lnInclude/janafThermoI.H at line 117\n    attempt to use janafThermo<EquationOfState> out of temperature range 200 -> 5000;  T = -139.949\n--> FOAM Warning :\n----------------------------------------\nWarning found by PyFoam on line 601 at time 0.000306218\n\n--> FOAM Warning :\n    From function Foam::scalar Foam::janafThermo<EquationOfState>::limit(Foam::scalar) const [with EquationOfState = Foam::perfectGas<Foam::specie>; Foam::scalar = double]\n    in file /home/ubuntu/OpenFOAM/OpenFOAM-6/src/thermophysicalModels/specie/lnInclude/janafThermoI.H at line 117\n    attempt to use janafThermo<EquationOfState> out of temperature range 200 -> 5000;  T = 193.313\n--> FOAM Warning :\n----------------------------------------\nWarning found by PyFoam on line 605 at time 0.000306218\n\n--> FOAM Warning :\n    From function Foam::scalar Foam::janafThermo<EquationOfState>::limit(Foam::scalar) const [with EquationOfState = Foam::perfectGas<Foam::specie>; Foam::scalar = double]\n    in file /home/ubuntu/OpenFOAM/OpenFOAM-6/src/thermophysicalModels/specie/lnInclude/janafThermoI.H at line 117\n    attempt to use janafThermo<EquationOfState> out of temperature range 200 -> 5000;  T = 193.285\n--> FOAM Warning :\n----------------------------------------\nWarning found by PyFoam on line 609 at time 0.000306218\n\n--> FOAM Warning :\n    From function Foam::scalar Foam::janafThermo<EquationOfState>::limit(Foam::scalar) const [with EquationOfState = Foam::perfectGas<Foam::specie>; Foam::scalar = double]\n    in file /home/ubuntu/OpenFOAM/OpenFOAM-6/src/thermophysicalModels/specie/lnInclude/janafThermoI.H at line 117\n    attempt to use janafThermo<EquationOfState> out of temperature range 200 -> 5000;  T = -154.896\n--> FOAM Warning :\n----------------------------------------\nWarning found by PyFoam on line 613 at time 0.000306218\n\n--> FOAM Warning :\n    From function Foam::scalar Foam::janafThermo<EquationOfState>::limit(Foam::scalar) const [with EquationOfState = Foam::perfectGas<Foam::specie>; Foam::scalar = double]\nNo more warnings added because limit of 500 lines exceeded'
p82
sS'starttime'
p83
S'Mon Jun 24 17:04:27 2019'
p84
sS'keyboardInterrupt'
p85
I01
sS'wallTime'
p86
F50.147814989089966
s.