(dp1
S'11'
p2
(dp3
S'nr'
p4
I11
sS'lastValid'
p5
(dp6
sS'values'
p7
(dp8
sS'slaves'
p9
(lp10
sS'times'
p11
(lp12
ssS'10'
p13
(dp14
g4
I10
sg5
(dp15
sg7
(dp16
sg9
(lp17
sg11
(lp18
ssS'13'
p19
(dp20
g4
I13
sg5
(dp21
sg7
(dp22
sg9
(lp23
sg11
(lp24
ssS'12'
p25
(dp26
g4
I12
sg5
(dp27
sg7
(dp28
sg9
(lp29
sg11
(lp30
ssS'14'
p31
(dp32
g4
I14
sg5
(dp33
sg7
(dp34
sg9
(lp35
sg11
(lp36
ssS'1'
(dp37
g4
I1
sg5
(dp38
sg7
(dp39
sg9
(lp40
sg11
(lp41
ssS'3'
(dp42
g4
I3
sg5
(dp43
sg7
(dp44
sg9
(lp45
sg11
(lp46
ssS'2'
(dp47
g4
I2
sg5
(dp48
sg7
(dp49
sg9
(lp50
sg11
(lp51
ssS'5'
(dp52
g4
I5
sg5
(dp53
sg7
(dp54
sg9
(lp55
sg11
(lp56
ssS'4'
(dp57
g4
I4
sg5
(dp58
sg7
(dp59
sg9
(lp60
sg11
(lp61
ssS'7'
(dp62
g4
I7
sg5
(dp63
sg7
(dp64
sg9
(lp65
sg11
(lp66
ssS'6'
(dp67
g4
I6
sg5
(dp68
sg7
(dp69
sg9
(lp70
sg11
(lp71
ssS'9'
(dp72
g4
I9
sg5
(dp73
sg7
(dp74
sg9
(lp75
sg11
(lp76
ssS'8'
(dp77
g4
I8
sg5
(dp78
sg7
(dp79
sg9
(lp80
sg11
(lp81
ss.(dp82
S'11'
p83
(dp84
g4
I11
sS'data'
p85
I10
sS'spec'
p86
(dp87
S'logscale'
p88
I00
sS'name'
p89
S'Custom04_iterations'
p90
sS'theTitle'
p91
S'Iterations'
p92
sS'raiseit'
p93
I00
sS'expr'
p94
S''
sS'forbidden'
p95
(lp96
sS'enabled'
p97
I01
sS'gnuplotCommands'
p98
(lp99
sS'raisit'
p100
I00
sS'titles'
p101
(lp102
sS'alternateAxis'
p103
(lp104
sS'enhanced'
p105
I00
sS'xlabel'
p106
S'Time [s]'
p107
sS'with'
p108
S'steps'
p109
sS'type'
p110
S'regular'
p111
sS'accumulation'
p112
S'first'
p113
ssS'id'
p114
S'iterations'
p115
ssS'10'
p116
(dp117
g4
I10
sg85
I13
sg86
(dp118
g88
I00
sg89
S'Custom03_bounding'
p119
sg91
S'Bounded variables'
p120
sg93
I00
sg94
S''
sg95
g96
sg97
I01
sg98
(lp121
sg100
I00
sg101
(lp122
sg103
g104
sg105
I00
sg106
g107
sS'with'
p123
S'lines'
p124
sg110
g111
sg112
g113
ssg114
S'bounding'
p125
ssS'13'
p126
(dp127
g4
I13
sg85
I12
sg86
(dp128
g88
I01
sg89
S'Custom06_timestep'
p129
sg91
S'DeltaT'
p130
sg93
I00
sg94
S''
sg95
g96
sg97
I01
sg98
(lp131
sg100
I00
sg101
(lp132
sg103
g104
sg105
I00
sg106
g107
sS'with'
p133
g124
sg110
g111
sg112
g113
ssg114
S'timestep'
p134
ssS'12'
p135
(dp136
g4
I12
sg85
I14
sg86
(dp137
g88
I00
sg89
S'Custom05_courant'
p138
sg91
S'Courant'
p139
sg93
I00
sg94
S''
sg95
g96
sg97
I01
sg98
(lp140
sg100
I00
sg101
(lp141
sg103
g104
sg105
I00
sg106
g107
sS'with'
p142
g124
sg110
g111
sg112
g113
ssg114
S'courant'
p143
ssS'14'
p144
(dp145
g4
I14
sg85
I11
sg86
(dp146
g88
I00
sg89
S'Custom07_execution'
p147
sg91
S'Execution Time'
p148
sg93
I00
sg94
S''
sg95
g96
sg97
I01
sg98
(lp149
sg100
I00
sg101
(lp150
sg103
g104
sg105
I00
sg106
g107
sS'with'
p151
g109
sg110
g111
sg112
g113
ssg114
S'execution'
p152
ssS'1'
(dp153
g4
I1
sg85
I2
sg86
(dp154
g88
I01
sg89
S'Custom01_linear'
p155
sg91
S'Residuals'
p156
sg93
I00
sg94
S''
sg95
(lp157
S'final'
p158
ag115
asg97
I01
sg98
(lp159
sg100
I00
sg101
(lp160
sg103
g104
sg105
I00
sg106
g107
sS'with'
p161
g124
sg110
g111
sg112
g113
ssg114
S'linear'
p162
ssS'3'
(dp163
g4
I3
sg85
I6
sg86
(dp164
g88
I00
sg89
S'Custom03_bounding'
p165
sg91
g120
sg93
I00
sg94
S''
sg95
g96
sg97
I01
sg98
(lp166
sg100
I00
sg101
(lp167
sg103
g104
sg105
I00
sg106
g107
sS'with'
p168
g124
sg110
g111
sg112
g113
ssg114
g125
ssS'2'
(dp169
g4
I2
sg85
I1
sg86
(dp170
g88
I00
sg89
S'Custom02_continuity'
p171
sg91
S'Continuity'
p172
sg93
I00
sg94
S''
sg95
g96
sg97
I01
sg98
(lp173
sg100
I00
sg101
(lp174
sg103
(lp175
S'Global'
p176
asg105
I00
sg106
g107
sS'with'
p177
g124
sg110
g111
sg112
g113
ssg114
S'continuity'
p178
ssS'5'
(dp179
g4
I5
sg85
I7
sg86
(dp180
g88
I00
sg89
S'Custom05_courant'
p181
sg91
g139
sg93
I00
sg94
S''
sg95
g96
sg97
I01
sg98
(lp182
sg100
I00
sg101
(lp183
sg103
g104
sg105
I00
sg106
g107
sS'with'
p184
g124
sg110
g111
sg112
g113
ssg114
g143
ssS'4'
(dp185
g4
I4
sg85
I3
sg86
(dp186
g88
I00
sg89
S'Custom04_iterations'
p187
sg91
g92
sg93
I00
sg94
S''
sg95
g96
sg97
I01
sg98
(lp188
sg100
I00
sg101
(lp189
sg103
g104
sg105
I00
sg106
g107
sS'with'
p190
g109
sg110
g111
sg112
g113
ssg114
g115
ssS'7'
(dp191
g4
I7
sg85
I4
sg86
(dp192
g88
I00
sg89
S'Custom07_execution'
p193
sg91
g148
sg93
I00
sg94
S''
sg95
g96
sg97
I01
sg98
(lp194
sg100
I00
sg101
(lp195
sg103
g104
sg105
I00
sg106
g107
sS'with'
p196
g109
sg110
g111
sg112
g113
ssg114
g152
ssS'6'
(dp197
g4
I6
sg85
I5
sg86
(dp198
g88
I01
sg89
S'Custom06_timestep'
p199
sg91
g130
sg93
I00
sg94
S''
sg95
g96
sg97
I01
sg98
(lp200
sg100
I00
sg101
(lp201
sg103
g104
sg105
I00
sg106
g107
sS'with'
p202
g124
sg110
g111
sg112
g113
ssg114
g134
ssS'9'
(dp203
g4
I9
sg85
I8
sg86
(dp204
g88
I00
sg89
S'Custom02_continuity'
p205
sg91
g172
sg93
I00
sg94
S''
sg95
g96
sg97
I01
sg98
(lp206
sg100
I00
sg101
(lp207
sg103
(lp208
g176
asg105
I00
sg106
g107
sS'with'
p209
g124
sg110
g111
sg112
g113
ssg114
g178
ssS'8'
(dp210
g4
I8
sg85
I9
sg86
(dp211
g88
I01
sg89
S'Custom01_linear'
p212
sg91
g156
sg93
I00
sg94
S''
sg95
(lp213
g158
ag115
asg97
I01
sg98
(lp214
sg100
I00
sg101
(lp215
sg103
g104
sg105
I00
sg106
g107
sS'with'
p216
g124
sg110
g111
sg112
g113
ssg114
g162
ss.